target datalayout = "e-m:e-p270:32:32-p271:32:32-p272:64:64-i64:64-i128:128-f80:128-n8:16:32:64-S128"
target triple = "x86_64-pc-linux-gnu"

%struct.UmbrellaOptions = type { ptr, ptr, ptr, ptr, i8, i8, float, float, float, i8, i32, i32, ptr, i32, float, float, float, float, float, i8, i8, i32, i8, float, i8, i8, i8, i8, i8, i32, ptr, i8, i8, float, i8, float, i8, i32, i32, float, i32, i32, i8, i8, ptr, ptr, double, double, double, i32, [4 x i8], %"class.gmx::ThreeFry2x64Fast", %"class.gmx::TabulatedNormalDistribution" }
%"class.gmx::ThreeFry2x64Fast" = type { %"class.gmx::ThreeFry2x64General.base", [4 x i8] }
%"class.gmx::ThreeFry2x64General.base" = type <{ %"struct.std::array", %"struct.std::array", %"struct.std::array", i32 }>
%"struct.std::array" = type { [2 x i64] }
%"class.gmx::TabulatedNormalDistribution" = type <{ %"class.gmx::TabulatedNormalDistribution<>::param_type", i64, i32, [4 x i8] }>
%"class.gmx::TabulatedNormalDistribution<>::param_type" = type { float, float }
%"class.std::filesystem::__cxx11::path" = type { %"class.std::__cxx11::basic_string", %"struct.std::filesystem::__cxx11::path::_List" }
%"class.std::__cxx11::basic_string" = type { %"struct.std::__cxx11::basic_string<char>::_Alloc_hider", i64, %union.anon.3 }
%"struct.std::__cxx11::basic_string<char>::_Alloc_hider" = type { ptr }
%union.anon.3 = type { i64, [8 x i8] }
%"struct.std::filesystem::__cxx11::path::_List" = type { %"class.std::unique_ptr" }
%"class.std::unique_ptr" = type { %"struct.std::__uniq_ptr_data" }
%"struct.std::__uniq_ptr_data" = type { %"class.std::__uniq_ptr_impl" }
%"class.std::__uniq_ptr_impl" = type { %"class.std::tuple" }
%"class.std::tuple" = type { %"struct.std::_Tuple_impl" }
%"struct.std::_Tuple_impl" = type { %"struct.std::_Head_base.5" }
%"struct.std::_Head_base.5" = type { ptr }

@.str.219 = private unnamed_addr constant [125 x i8] c"generated/home/dtcxzyw/WorkSpace/Projects/compilers/llvm-opt-benchmark/bench/gromacs/gromacs/src/gromacs/gmxana/gmx_wham.cpp\00", align 1
@.str.389 = private unnamed_addr constant [61 x i8] c"Cannot symmetrize profile around z=0 with min=%f and max=%f\0A\00", align 1
@.str.390 = private unnamed_addr constant [6 x i8] c"prof2\00", align 1

; Function Attrs: mustprogress uwtable
define internal void @_ZL14gmx_sfree_implIdEvPKcS1_iPT_(ptr noundef %0, ptr noundef %1, i32 noundef %2, ptr noundef %3) #0 {
  %5 = alloca ptr, align 8
  %6 = alloca ptr, align 8
  %7 = alloca i32, align 4
  %8 = alloca ptr, align 8
  store ptr %0, ptr %5, align 8
  store ptr %1, ptr %6, align 8
  store i32 %2, ptr %7, align 4
  store ptr %3, ptr %8, align 8
  %9 = load ptr, ptr %5, align 8
  %10 = load ptr, ptr %6, align 8
  %11 = load i32, ptr %7, align 4
  %12 = load ptr, ptr %8, align 8
  call void @_Z9save_freePKcS0_iPv(ptr noundef %9, ptr noundef %10, i32 noundef %11, ptr noundef %12)
  ret void
}

; Function Attrs: mustprogress nounwind uwtable
define internal noundef i32 @_ZN3gmxL10roundToIntEd(double noundef %0) #4 {
  %2 = alloca double, align 8
  store double %0, ptr %2, align 8
  %3 = load double, ptr %2, align 8
  %4 = call double @llvm.rint.f64(double %3)
  %5 = fptosi double %4 to i32
  ret i32 %5
}

; Function Attrs: mustprogress uwtable
define internal void @_ZL13gmx_snew_implIdEvPKcS1_iRPT_m(ptr noundef %0, ptr noundef %1, i32 noundef %2, ptr noundef nonnull align 8 dereferenceable(8) %3, i64 noundef %4) #0 {
  %6 = alloca ptr, align 8
  %7 = alloca ptr, align 8
  %8 = alloca i32, align 4
  %9 = alloca ptr, align 8
  %10 = alloca i64, align 8
  store ptr %0, ptr %6, align 8
  store ptr %1, ptr %7, align 8
  store i32 %2, ptr %8, align 4
  store ptr %3, ptr %9, align 8
  store i64 %4, ptr %10, align 8
  %11 = load ptr, ptr %6, align 8
  %12 = load ptr, ptr %7, align 8
  %13 = load i32, ptr %8, align 4
  %14 = load i64, ptr %10, align 8
  %15 = call noundef ptr @_Z11save_callocPKcS0_imm(ptr noundef %11, ptr noundef %12, i32 noundef %13, i64 noundef %14, i64 noundef 8)
  %16 = load ptr, ptr %9, align 8
  store ptr %15, ptr %16, align 8
  ret void
}

; Function Attrs: mustprogress uwtable
define internal void @_ZL17symmetrizeProfilePdP15UmbrellaOptions(ptr noundef %0, ptr noundef %1) #0 personality ptr @__gxx_personality_v0 {
  %3 = alloca ptr, align 8
  %4 = alloca ptr, align 8
  %5 = alloca i32, align 4
  %6 = alloca i32, align 4
  %7 = alloca i32, align 4
  %8 = alloca ptr, align 8
  %9 = alloca double, align 8
  %10 = alloca double, align 8
  %11 = alloca double, align 8
  %12 = alloca double, align 8
  %13 = alloca double, align 8
  %14 = alloca double, align 8
  %15 = alloca double, align 8
  %16 = alloca double, align 8
  %17 = alloca %"class.std::filesystem::__cxx11::path", align 8
  %18 = alloca ptr, align 8
  %19 = alloca i32, align 4
  store ptr %0, ptr %3, align 8
  store ptr %1, ptr %4, align 8
  %20 = load ptr, ptr %4, align 8
  %21 = getelementptr inbounds %struct.UmbrellaOptions, ptr %20, i32 0, i32 13
  %22 = load i32, ptr %21, align 8
  store i32 %22, ptr %7, align 4
  %23 = load ptr, ptr %4, align 8
  %24 = getelementptr inbounds %struct.UmbrellaOptions, ptr %23, i32 0, i32 14
  %25 = load float, ptr %24, align 4
  %26 = fpext float %25 to double
  store double %26, ptr %9, align 8
  %27 = load ptr, ptr %4, align 8
  %28 = getelementptr inbounds %struct.UmbrellaOptions, ptr %27, i32 0, i32 15
  %29 = load float, ptr %28, align 8
  %30 = fpext float %29 to double
  store double %30, ptr %10, align 8
  %31 = load ptr, ptr %4, align 8
  %32 = getelementptr inbounds %struct.UmbrellaOptions, ptr %31, i32 0, i32 16
  %33 = load float, ptr %32, align 4
  %34 = fpext float %33 to double
  store double %34, ptr %11, align 8
  %35 = load double, ptr %9, align 8
  %36 = fcmp ogt double %35, 0.000000e+00
  br i1 %36, label %40, label %37

37:                                               ; preds = %2
  %38 = load double, ptr %10, align 8
  %39 = fcmp olt double %38, 0.000000e+00
  br i1 %39, label %40, label %54

40:                                               ; preds = %37, %2
  call void @_ZNSt10filesystem7__cxx114pathC2IA125_cS1_EERKT_NS1_6formatE(ptr noundef nonnull align 8 dereferenceable(40) %17, ptr noundef nonnull align 1 dereferenceable(125) @.str.219, i8 noundef zeroext 2)
  %41 = load ptr, ptr %4, align 8
  %42 = getelementptr inbounds %struct.UmbrellaOptions, ptr %41, i32 0, i32 14
  %43 = load float, ptr %42, align 4
  %44 = fpext float %43 to double
  %45 = load ptr, ptr %4, align 8
  %46 = getelementptr inbounds %struct.UmbrellaOptions, ptr %45, i32 0, i32 15
  %47 = load float, ptr %46, align 8
  %48 = fpext float %47 to double
  invoke void (i32, ptr, i32, ptr, ...) @_Z9gmx_fataliRKNSt10filesystem7__cxx114pathEiPKcz(i32 noundef 0, ptr noundef nonnull align 8 dereferenceable(40) %17, i32 noundef 800, ptr noundef @.str.389, double noundef %44, double noundef %48) #17
          to label %49 unwind label %50

49:                                               ; preds = %40
  unreachable

50:                                               ; preds = %40
  %51 = landingpad { ptr, i32 }
          cleanup
  %52 = extractvalue { ptr, i32 } %51, 0
  store ptr %52, ptr %18, align 8
  %53 = extractvalue { ptr, i32 } %51, 1
  store i32 %53, ptr %19, align 4
  call void @_ZNSt10filesystem7__cxx114pathD2Ev(ptr noundef nonnull align 8 dereferenceable(40) %17) #2
  br label %148

54:                                               ; preds = %37
  %55 = load i32, ptr %7, align 4
  %56 = sext i32 %55 to i64
  call void @_ZL13gmx_snew_implIdEvPKcS1_iRPT_m(ptr noundef @.str.390, ptr noundef @.str.219, i32 noundef 803, ptr noundef nonnull align 8 dereferenceable(8) %8, i64 noundef %56)
  store i32 0, ptr %5, align 4
  br label %57

57:                                               ; preds = %138, %54
  %58 = load i32, ptr %5, align 4
  %59 = load i32, ptr %7, align 4
  %60 = icmp slt i32 %58, %59
  br i1 %60, label %61, label %141

61:                                               ; preds = %57
  %62 = load double, ptr %9, align 8
  %63 = load i32, ptr %5, align 4
  %64 = sitofp i32 %63 to double
  %65 = fadd double %64, 5.000000e-01
  %66 = load double, ptr %11, align 8
  %67 = call double @llvm.fmuladd.f64(double %65, double %66, double %62)
  store double %67, ptr %15, align 8
  %68 = load double, ptr %15, align 8
  %69 = fneg double %68
  store double %69, ptr %12, align 8
  %70 = load double, ptr %12, align 8
  %71 = load double, ptr %9, align 8
  %72 = fsub double %70, %71
  %73 = load double, ptr %11, align 8
  %74 = fdiv double %72, %73
  %75 = call noundef i32 @_ZN3gmxL10roundToIntEd(double noundef %74)
  %76 = sub nsw i32 %75, 1
  store i32 %76, ptr %6, align 4
  %77 = load i32, ptr %6, align 4
  %78 = icmp sge i32 %77, 0
  br i1 %78, label %79, label %127

79:                                               ; preds = %61
  %80 = load i32, ptr %6, align 4
  %81 = add nsw i32 %80, 1
  %82 = load i32, ptr %7, align 4
  %83 = icmp slt i32 %81, %82
  br i1 %83, label %84, label %127

84:                                               ; preds = %79
  %85 = load double, ptr %9, align 8
  %86 = load i32, ptr %6, align 4
  %87 = sitofp i32 %86 to double
  %88 = fadd double %87, 5.000000e-01
  %89 = load double, ptr %11, align 8
  %90 = call double @llvm.fmuladd.f64(double %88, double %89, double %85)
  store double %90, ptr %16, align 8
  %91 = load double, ptr %12, align 8
  %92 = load double, ptr %16, align 8
  %93 = fsub double %91, %92
  store double %93, ptr %13, align 8
  %94 = load ptr, ptr %3, align 8
  %95 = load i32, ptr %6, align 4
  %96 = sext i32 %95 to i64
  %97 = getelementptr inbounds double, ptr %94, i64 %96
  %98 = load double, ptr %97, align 8
  %99 = load ptr, ptr %3, align 8
  %100 = load i32, ptr %6, align 4
  %101 = add nsw i32 %100, 1
  %102 = sext i32 %101 to i64
  %103 = getelementptr inbounds double, ptr %99, i64 %102
  %104 = load double, ptr %103, align 8
  %105 = load ptr, ptr %3, align 8
  %106 = load i32, ptr %6, align 4
  %107 = sext i32 %106 to i64
  %108 = getelementptr inbounds double, ptr %105, i64 %107
  %109 = load double, ptr %108, align 8
  %110 = fsub double %104, %109
  %111 = load double, ptr %11, align 8
  %112 = fdiv double %110, %111
  %113 = load double, ptr %13, align 8
  %114 = call double @llvm.fmuladd.f64(double %112, double %113, double %98)
  store double %114, ptr %14, align 8
  %115 = load double, ptr %14, align 8
  %116 = load ptr, ptr %3, align 8
  %117 = load i32, ptr %5, align 4
  %118 = sext i32 %117 to i64
  %119 = getelementptr inbounds double, ptr %116, i64 %118
  %120 = load double, ptr %119, align 8
  %121 = fadd double %115, %120
  %122 = fmul double 5.000000e-01, %121
  %123 = load ptr, ptr %8, align 8
  %124 = load i32, ptr %5, align 4
  %125 = sext i32 %124 to i64
  %126 = getelementptr inbounds double, ptr %123, i64 %125
  store double %122, ptr %126, align 8
  br label %137

127:                                              ; preds = %79, %61
  %128 = load ptr, ptr %3, align 8
  %129 = load i32, ptr %5, align 4
  %130 = sext i32 %129 to i64
  %131 = getelementptr inbounds double, ptr %128, i64 %130
  %132 = load double, ptr %131, align 8
  %133 = load ptr, ptr %8, align 8
  %134 = load i32, ptr %5, align 4
  %135 = sext i32 %134 to i64
  %136 = getelementptr inbounds double, ptr %133, i64 %135
  store double %132, ptr %136, align 8
  br label %137

137:                                              ; preds = %127, %84
  br label %138

138:                                              ; preds = %137
  %139 = load i32, ptr %5, align 4
  %140 = add nsw i32 %139, 1
  store i32 %140, ptr %5, align 4
  br label %57, !llvm.loop !67

141:                                              ; preds = %57
  %142 = load ptr, ptr %3, align 8
  %143 = load ptr, ptr %8, align 8
  %144 = load i32, ptr %7, align 4
  %145 = sext i32 %144 to i64
  %146 = mul i64 %145, 8
  call void @llvm.memcpy.p0.p0.i64(ptr align 8 %142, ptr align 8 %143, i64 %146, i1 false)
  %147 = load ptr, ptr %8, align 8
  call void @_ZL14gmx_sfree_implIdEvPKcS1_iPT_(ptr noundef @.str.390, ptr noundef @.str.219, i32 noundef 827, ptr noundef %147)
  ret void

148:                                              ; preds = %50
  %149 = load ptr, ptr %18, align 8
  %150 = load i32, ptr %19, align 4
  %151 = insertvalue { ptr, i32 } poison, ptr %149, 0
  %152 = insertvalue { ptr, i32 } %151, i32 %150, 1
  resume { ptr, i32 } %152
}