; Function Attrs: mustprogress uwtable
define internal fastcc void @_ZL17symmetrizeProfilePdP15UmbrellaOptions(ptr nocapture noundef %0) unnamed_addr #0 personality ptr @__gxx_personality_v0 {
  %2 = alloca %"class.std::filesystem::__cxx11::path", align 8
  %3 = load i32, ptr getelementptr inbounds (%struct.UmbrellaOptions, ptr @_ZZ8gmx_whamiPPcE3opt, i64 0, i32 13), align 8
  %4 = load float, ptr getelementptr inbounds (%struct.UmbrellaOptions, ptr @_ZZ8gmx_whamiPPcE3opt, i64 0, i32 14), align 4
  %5 = fpext float %4 to double
  %6 = load float, ptr getelementptr inbounds (%struct.UmbrellaOptions, ptr @_ZZ8gmx_whamiPPcE3opt, i64 0, i32 15), align 8
  %7 = load float, ptr getelementptr inbounds (%struct.UmbrellaOptions, ptr @_ZZ8gmx_whamiPPcE3opt, i64 0, i32 16), align 4
  %8 = fpext float %7 to double
  %9 = fcmp ogt float %4, 0.000000e+00
  %10 = fcmp olt float %6, 0.000000e+00
  %or.cond = select i1 %9, i1 true, i1 %10
  br i1 %or.cond, label %11, label %19

11:                                               ; preds = %1
  call void @_ZNSt10filesystem7__cxx114pathC2IA125_cS1_EERKT_NS1_6formatE(ptr noundef nonnull align 8 dereferenceable(40) %2, ptr noundef nonnull align 1 dereferenceable(125) @.str.219, i8 noundef zeroext 2)
  %12 = load float, ptr getelementptr inbounds (%struct.UmbrellaOptions, ptr @_ZZ8gmx_whamiPPcE3opt, i64 0, i32 14), align 4
  %13 = fpext float %12 to double
  %14 = load float, ptr getelementptr inbounds (%struct.UmbrellaOptions, ptr @_ZZ8gmx_whamiPPcE3opt, i64 0, i32 15), align 8
  %15 = fpext float %14 to double
  invoke void (i32, ptr, i32, ptr, ...) @_Z9gmx_fataliRKNSt10filesystem7__cxx114pathEiPKcz(i32 noundef 0, ptr noundef nonnull align 8 dereferenceable(40) %2, i32 noundef 800, ptr noundef nonnull @.str.389, double noundef %13, double noundef %15) #25
          to label %16 unwind label %17

16:                                               ; preds = %11
  unreachable

17:                                               ; preds = %11
  %18 = landingpad { ptr, i32 }
          cleanup
  call void @_ZNSt10filesystem7__cxx114pathD2Ev(ptr noundef nonnull align 8 dereferenceable(40) %2) #20
  resume { ptr, i32 } %18

19:                                               ; preds = %1
  %20 = sext i32 %3 to i64
  %21 = tail call noundef ptr @_Z11save_callocPKcS0_imm(ptr noundef nonnull @.str.390, ptr noundef nonnull @.str.219, i32 noundef 803, i64 noundef %20, i64 noundef 8)
  %22 = icmp sgt i32 %3, 0
  br i1 %22, label %.lr.ph.preheader, label %._crit_edge

.lr.ph.preheader:                                 ; preds = %19
  %wide.trip.count = zext nneg i32 %3 to i64
  br label %.lr.ph

.lr.ph:                                           ; preds = %.lr.ph.preheader, %56
  %indvars.iv = phi i64 [ 0, %.lr.ph.preheader ], [ %indvars.iv.next, %56 ]
  %23 = trunc nuw nsw i64 %indvars.iv to i32
  %24 = uitofp nneg i32 %23 to double
  %25 = fadd double %24, 5.000000e-01
  %26 = tail call double @llvm.fmuladd.f64(double %25, double %8, double %5)
  %27 = fneg double %26
  %28 = fsub double %27, %5
  %29 = fdiv double %28, %8
  %30 = tail call double @llvm.rint.f64(double %29)
  %31 = fptosi double %30 to i32
  %32 = icmp sgt i32 %31, 0
  %33 = icmp sgt i32 %3, %31
  %or.cond50 = select i1 %32, i1 %33, i1 false
  br i1 %or.cond50, label %34, label %53

34:                                               ; preds = %.lr.ph
  %35 = add nsw i32 %31, -1
  %36 = sitofp i32 %35 to double
  %37 = fadd double %36, 5.000000e-01
  %38 = tail call double @llvm.fmuladd.f64(double %37, double %8, double %5)
  %39 = fsub double %27, %38
  %40 = zext nneg i32 %35 to i64
  %41 = getelementptr inbounds double, ptr %0, i64 %40
  %42 = load double, ptr %41, align 8
  %43 = zext nneg i32 %31 to i64
  %44 = getelementptr inbounds double, ptr %0, i64 %43
  %45 = load double, ptr %44, align 8
  %46 = fsub double %45, %42
  %47 = fdiv double %46, %8
  %48 = tail call double @llvm.fmuladd.f64(double %47, double %39, double %42)
  %49 = getelementptr inbounds double, ptr %0, i64 %indvars.iv
  %50 = load double, ptr %49, align 8
  %51 = fadd double %50, %48
  %52 = fmul double %51, 5.000000e-01
  br label %56

53:                                               ; preds = %.lr.ph
  %54 = getelementptr inbounds double, ptr %0, i64 %indvars.iv
  %55 = load double, ptr %54, align 8
  br label %56

56:                                               ; preds = %34, %53
  %.sink = phi double [ %52, %34 ], [ %55, %53 ]
  %57 = getelementptr inbounds double, ptr %21, i64 %indvars.iv
  store double %.sink, ptr %57, align 8
  %indvars.iv.next = add nuw nsw i64 %indvars.iv, 1
  %exitcond.not = icmp eq i64 %indvars.iv.next, %wide.trip.count
  br i1 %exitcond.not, label %._crit_edge, label %.lr.ph, !llvm.loop !80

._crit_edge:                                      ; preds = %56, %19
  %58 = shl nsw i64 %20, 3
  tail call void @llvm.memcpy.p0.p0.i64(ptr align 8 %0, ptr align 8 %21, i64 %58, i1 false)
  tail call void @_Z9save_freePKcS0_iPv(ptr noundef nonnull @.str.390, ptr noundef nonnull @.str.219, i32 noundef 827, ptr noundef %21)
  ret void
}